	.section	__TEXT,__text,regular,pure_instructions
	.build_version macos, 10, 14	sdk_version 10, 14
	.file	1 "/Users/gwasserf/Documents/WeThinkCode_/C/Lemon/visualiser" "/usr/local/include/SDL2/SDL_scancode.h"
	.file	2 "/Users/gwasserf/Documents/WeThinkCode_/C/Lemon/visualiser" "/usr/local/include/SDL2/SDL_events.h"
	.file	3 "/Users/gwasserf/Documents/WeThinkCode_/C/Lemon/visualiser" "/usr/local/include/SDL2/SDL_keycode.h"
	.file	4 "/Users/gwasserf/Documents/WeThinkCode_/C/Lemon/visualiser" "/usr/local/include/SDL2/SDL_video.h"
	.file	5 "/Users/gwasserf/Documents/WeThinkCode_/C/Lemon/visualiser" "/usr/local/include/SDL2/SDL_render.h"
	.globl	_join_colony            ## -- Begin function join_colony
	.p2align	4, 0x90
_join_colony:                           ## @join_colony
Lfunc_begin0:
	.file	6 "/Users/gwasserf/Documents/WeThinkCode_/C/Lemon/visualiser" "visualiser.c"
	.loc	6 6 0                   ## visualiser.c:6:0
	.cfi_startproc
## %bb.0:
	pushq	%rbp
	.cfi_def_cfa_offset 16
	.cfi_offset %rbp, -16
	movq	%rsp, %rbp
	.cfi_def_cfa_register %rbp
	movq	%rdi, -8(%rbp)
	movq	%rsi, -16(%rbp)
Ltmp0:
	.loc	6 11 7 prologue_end     ## visualiser.c:11:7
	movq	-8(%rbp), %rsi
	cmpq	$0, 32(%rsi)
Ltmp1:
	.loc	6 11 6 is_stmt 0        ## visualiser.c:11:6
	jne	LBB0_2
## %bb.1:
Ltmp2:
	.loc	6 12 21 is_stmt 1       ## visualiser.c:12:21
	movq	-16(%rbp), %rax
	.loc	6 12 3 is_stmt 0        ## visualiser.c:12:3
	movq	-8(%rbp), %rcx
	.loc	6 12 19                 ## visualiser.c:12:19
	movq	%rax, 32(%rcx)
	.loc	6 12 3                  ## visualiser.c:12:3
	jmp	LBB0_6
LBB0_2:
Ltmp3:
	.loc	6 15 11 is_stmt 1       ## visualiser.c:15:11
	movq	-8(%rbp), %rax
	.loc	6 15 20 is_stmt 0       ## visualiser.c:15:20
	movq	32(%rax), %rax
	.loc	6 15 9                  ## visualiser.c:15:9
	movq	%rax, -24(%rbp)
LBB0_3:                                 ## =>This Inner Loop Header: Depth=1
	.loc	6 16 10 is_stmt 1       ## visualiser.c:16:10
	movq	-24(%rbp), %rax
	.loc	6 16 3 is_stmt 0        ## visualiser.c:16:3
	cmpq	$0, 32(%rax)
	je	LBB0_5
## %bb.4:                               ##   in Loop: Header=BB0_3 Depth=1
	.loc	6 17 12 is_stmt 1       ## visualiser.c:17:12
	movq	-24(%rbp), %rax
	.loc	6 17 19 is_stmt 0       ## visualiser.c:17:19
	movq	32(%rax), %rax
	.loc	6 17 10                 ## visualiser.c:17:10
	movq	%rax, -24(%rbp)
	.loc	6 16 3 is_stmt 1        ## visualiser.c:16:3
	jmp	LBB0_3
LBB0_5:
	.loc	6 18 17                 ## visualiser.c:18:17
	movq	-16(%rbp), %rax
	.loc	6 18 3 is_stmt 0        ## visualiser.c:18:3
	movq	-24(%rbp), %rcx
	.loc	6 18 15                 ## visualiser.c:18:15
	movq	%rax, 32(%rcx)
Ltmp4:
LBB0_6:
	.loc	6 20 1 is_stmt 1        ## visualiser.c:20:1
	popq	%rbp
	retq
Ltmp5:
Lfunc_end0:
	.cfi_endproc
                                        ## -- End function
	.globl	_hatch_ant              ## -- Begin function hatch_ant
	.p2align	4, 0x90
_hatch_ant:                             ## @hatch_ant
Lfunc_begin1:
	.loc	6 23 0                  ## visualiser.c:23:0
	.cfi_startproc
## %bb.0:
	pushq	%rbp
	.cfi_def_cfa_offset 16
	.cfi_offset %rbp, -16
	movq	%rsp, %rbp
	.cfi_def_cfa_register %rbp
	subq	$48, %rsp
	movl	$40, %eax
	movl	%eax, %r8d
	movq	%rdi, -16(%rbp)
	movl	%esi, -20(%rbp)
	movl	%edx, -24(%rbp)
	movq	%rcx, -32(%rbp)
Ltmp6:
	.loc	6 26 14 prologue_end    ## visualiser.c:26:14
	movq	%r8, %rdi
	callq	_malloc
	.loc	6 26 12 is_stmt 0       ## visualiser.c:26:12
	movq	%rax, -40(%rbp)
	cmpq	$0, %rax
Ltmp7:
	.loc	6 26 6                  ## visualiser.c:26:6
	jne	LBB1_2
## %bb.1:
Ltmp8:
	.loc	6 27 3 is_stmt 1        ## visualiser.c:27:3
	movl	$0, -4(%rbp)
	jmp	LBB1_3
Ltmp9:
LBB1_2:
	.loc	6 28 11                 ## visualiser.c:28:11
	movl	-20(%rbp), %eax
	.loc	6 28 2 is_stmt 0        ## visualiser.c:28:2
	movq	-40(%rbp), %rcx
	.loc	6 28 9                  ## visualiser.c:28:9
	movl	%eax, (%rcx)
	.loc	6 29 11 is_stmt 1       ## visualiser.c:29:11
	movl	-24(%rbp), %eax
	.loc	6 29 2 is_stmt 0        ## visualiser.c:29:2
	movq	-40(%rbp), %rcx
	.loc	6 29 9                  ## visualiser.c:29:9
	movl	%eax, 4(%rcx)
	.loc	6 30 2 is_stmt 1        ## visualiser.c:30:2
	movq	-40(%rbp), %rcx
	.loc	6 30 12 is_stmt 0       ## visualiser.c:30:12
	movq	$0, 32(%rcx)
	.loc	6 31 24 is_stmt 1       ## visualiser.c:31:24
	movq	-32(%rbp), %rdi
	.loc	6 31 14 is_stmt 0       ## visualiser.c:31:14
	callq	_ft_strdup
	.loc	6 31 2                  ## visualiser.c:31:2
	movq	-40(%rbp), %rcx
	.loc	6 31 12                 ## visualiser.c:31:12
	movq	%rax, 8(%rcx)
	.loc	6 32 14 is_stmt 1       ## visualiser.c:32:14
	movq	-16(%rbp), %rdi
	.loc	6 32 23 is_stmt 0       ## visualiser.c:32:23
	movq	-40(%rbp), %rsi
	.loc	6 32 2                  ## visualiser.c:32:2
	callq	_join_colony
	.loc	6 33 2 is_stmt 1        ## visualiser.c:33:2
	movl	$1, -4(%rbp)
LBB1_3:
	.loc	6 34 1                  ## visualiser.c:34:1
	movl	-4(%rbp), %eax
	addq	$48, %rsp
	popq	%rbp
	retq
Ltmp10:
Lfunc_end1:
	.cfi_endproc
                                        ## -- End function
	.globl	_init_state             ## -- Begin function init_state
	.p2align	4, 0x90
_init_state:                            ## @init_state
Lfunc_begin2:
	.loc	6 37 0                  ## visualiser.c:37:0
	.cfi_startproc
## %bb.0:
	pushq	%rbp
	.cfi_def_cfa_offset 16
	.cfi_offset %rbp, -16
	movq	%rsp, %rbp
	.cfi_def_cfa_register %rbp
	subq	$16, %rsp
	movl	$136, %eax
	movl	%eax, %edi
Ltmp11:
	.loc	6 40 10 prologue_end    ## visualiser.c:40:10
	callq	_malloc
	movl	$16, %ecx
	movl	%ecx, %edi
	.loc	6 40 8 is_stmt 0        ## visualiser.c:40:8
	movq	%rax, -8(%rbp)
	.loc	6 42 2 is_stmt 1        ## visualiser.c:42:2
	movq	-8(%rbp), %rax
	.loc	6 42 16 is_stmt 0       ## visualiser.c:42:16
	movq	$0, (%rax)
	.loc	6 43 2 is_stmt 1        ## visualiser.c:43:2
	movq	-8(%rbp), %rax
	.loc	6 43 18 is_stmt 0       ## visualiser.c:43:18
	movq	$0, 8(%rax)
	.loc	6 44 2 is_stmt 1        ## visualiser.c:44:2
	movq	-8(%rbp), %rax
	.loc	6 44 17 is_stmt 0       ## visualiser.c:44:17
	movb	$0, 88(%rax)
	.loc	6 45 2 is_stmt 1        ## visualiser.c:45:2
	movq	-8(%rbp), %rax
	.loc	6 45 15 is_stmt 0       ## visualiser.c:45:15
	movl	$0, 112(%rax)
	.loc	6 46 2 is_stmt 1        ## visualiser.c:46:2
	movq	-8(%rbp), %rax
	.loc	6 46 16 is_stmt 0       ## visualiser.c:46:16
	movl	$0, 116(%rax)
	.loc	6 47 2 is_stmt 1        ## visualiser.c:47:2
	movq	-8(%rbp), %rax
	.loc	6 47 14 is_stmt 0       ## visualiser.c:47:14
	movq	$0, 72(%rax)
	.loc	6 48 2 is_stmt 1        ## visualiser.c:48:2
	movq	-8(%rbp), %rax
	.loc	6 48 15 is_stmt 0       ## visualiser.c:48:15
	movq	$0, 80(%rax)
	.loc	6 49 2 is_stmt 1        ## visualiser.c:49:2
	movq	-8(%rbp), %rax
	.loc	6 49 15 is_stmt 0       ## visualiser.c:49:15
	movb	$0, 89(%rax)
	.loc	6 50 16 is_stmt 1       ## visualiser.c:50:16
	callq	_malloc
	.loc	6 50 2 is_stmt 0        ## visualiser.c:50:2
	movq	-8(%rbp), %rdi
	.loc	6 50 14                 ## visualiser.c:50:14
	movq	%rax, 104(%rdi)
	.loc	6 51 2 is_stmt 1        ## visualiser.c:51:2
	movq	-8(%rbp), %rax
	.loc	6 51 14 is_stmt 0       ## visualiser.c:51:14
	movl	$40, 120(%rax)
	.loc	6 52 2 is_stmt 1        ## visualiser.c:52:2
	movq	-8(%rbp), %rax
	.loc	6 52 9 is_stmt 0        ## visualiser.c:52:9
	movq	104(%rax), %rax
	.loc	6 52 17                 ## visualiser.c:52:17
	movl	$20, 12(%rax)
	.loc	6 53 2 is_stmt 1        ## visualiser.c:53:2
	movq	-8(%rbp), %rax
	.loc	6 53 9 is_stmt 0        ## visualiser.c:53:9
	movq	104(%rax), %rax
	.loc	6 53 17                 ## visualiser.c:53:17
	movl	$20, 8(%rax)
	.loc	6 54 2 is_stmt 1        ## visualiser.c:54:2
	movq	-8(%rbp), %rax
	.loc	6 54 9 is_stmt 0        ## visualiser.c:54:9
	movq	104(%rax), %rax
	.loc	6 54 17                 ## visualiser.c:54:17
	movl	$300, (%rax)            ## imm = 0x12C
	.loc	6 55 2 is_stmt 1        ## visualiser.c:55:2
	movq	-8(%rbp), %rax
	.loc	6 55 9 is_stmt 0        ## visualiser.c:55:9
	movq	104(%rax), %rax
	.loc	6 55 17                 ## visualiser.c:55:17
	movl	$400, 4(%rax)           ## imm = 0x190
	.loc	6 56 2 is_stmt 1        ## visualiser.c:56:2
	movq	-8(%rbp), %rax
	.loc	6 56 18 is_stmt 0       ## visualiser.c:56:18
	movl	$0, 92(%rax)
	.loc	6 57 2 is_stmt 1        ## visualiser.c:57:2
	movq	-8(%rbp), %rax
	.loc	6 57 18 is_stmt 0       ## visualiser.c:57:18
	movl	$0, 96(%rax)
	.loc	6 59 9 is_stmt 1        ## visualiser.c:59:9
	movq	-8(%rbp), %rax
	.loc	6 59 2 is_stmt 0        ## visualiser.c:59:2
	addq	$16, %rsp
	popq	%rbp
	retq
Ltmp12:
Lfunc_end2:
	.cfi_endproc
                                        ## -- End function
	.globl	_explore_map            ## -- Begin function explore_map
	.p2align	4, 0x90
_explore_map:                           ## @explore_map
Lfunc_begin3:
	.loc	6 63 0 is_stmt 1        ## visualiser.c:63:0
	.cfi_startproc
## %bb.0:
	pushq	%rbp
	.cfi_def_cfa_offset 16
	.cfi_offset %rbp, -16
	movq	%rsp, %rbp
	.cfi_def_cfa_register %rbp
	subq	$16, %rsp
	movq	%rdi, -8(%rbp)
	movq	%rsi, -16(%rbp)
LBB3_1:                                 ## =>This Inner Loop Header: Depth=1
Ltmp13:
	.loc	6 65 9 prologue_end     ## visualiser.c:65:9
	movq	-16(%rbp), %rax
	.loc	6 65 2 is_stmt 0        ## visualiser.c:65:2
	cmpq	$0, 16(%rax)
	je	LBB3_3
## %bb.2:                               ##   in Loop: Header=BB3_1 Depth=1
	.loc	6 66 10 is_stmt 1       ## visualiser.c:66:10
	movq	-16(%rbp), %rax
	.loc	6 66 16 is_stmt 0       ## visualiser.c:66:16
	movq	16(%rax), %rax
	.loc	6 66 8                  ## visualiser.c:66:8
	movq	%rax, -16(%rbp)
	.loc	6 65 2 is_stmt 1        ## visualiser.c:65:2
	jmp	LBB3_1
LBB3_3:
Ltmp14:
	.loc	6 68 6                  ## visualiser.c:68:6
	movq	-16(%rbp), %rax
	.loc	6 68 12 is_stmt 0       ## visualiser.c:68:12
	movq	(%rax), %rax
	.loc	6 68 20                 ## visualiser.c:68:20
	movq	-8(%rbp), %rcx
	.loc	6 68 23                 ## visualiser.c:68:23
	movq	128(%rcx), %rcx
	.loc	6 68 17                 ## visualiser.c:68:17
	cmpq	16(%rcx), %rax
Ltmp15:
	.loc	6 68 6                  ## visualiser.c:68:6
	jne	LBB3_5
## %bb.4:
Ltmp16:
	.loc	6 69 3 is_stmt 1        ## visualiser.c:69:3
	jmp	LBB3_10
Ltmp17:
LBB3_5:
	.loc	6 72 6                  ## visualiser.c:72:6
	movq	-16(%rbp), %rax
	.loc	6 72 12 is_stmt 0       ## visualiser.c:72:12
	movq	(%rax), %rax
	.loc	6 72 18                 ## visualiser.c:72:18
	movl	28(%rax), %ecx
	.loc	6 72 32                 ## visualiser.c:72:32
	movq	-16(%rbp), %rax
	.loc	6 72 29                 ## visualiser.c:72:29
	cmpl	8(%rax), %ecx
	.loc	6 72 44                 ## visualiser.c:72:44
	jle	LBB3_7
## %bb.6:
	.loc	6 72 55                 ## visualiser.c:72:55
	movq	-8(%rbp), %rax
	.loc	6 72 58                 ## visualiser.c:72:58
	movq	72(%rax), %rdi
	.loc	6 72 64                 ## visualiser.c:72:64
	movq	-16(%rbp), %rax
	.loc	6 72 70                 ## visualiser.c:72:70
	movq	(%rax), %rax
	.loc	6 72 76                 ## visualiser.c:72:76
	movq	8(%rax), %rax
	.loc	6 72 82                 ## visualiser.c:72:82
	movq	-16(%rbp), %rcx
	.loc	6 72 64                 ## visualiser.c:72:64
	movslq	8(%rcx), %rcx
	movq	(%rax,%rcx,8), %rsi
	.loc	6 72 47                 ## visualiser.c:72:47
	callq	_visited
Ltmp18:
	.loc	6 72 6                  ## visualiser.c:72:6
	testb	$1, %al
	jne	LBB3_7
	jmp	LBB3_8
LBB3_7:
Ltmp19:
	.loc	6 74 3 is_stmt 1        ## visualiser.c:74:3
	movq	-16(%rbp), %rax
	.loc	6 74 9 is_stmt 0        ## visualiser.c:74:9
	movq	24(%rax), %rax
	.loc	6 74 20                 ## visualiser.c:74:20
	movl	8(%rax), %ecx
	addl	$1, %ecx
	movl	%ecx, 8(%rax)
	.loc	6 75 3 is_stmt 1        ## visualiser.c:75:3
	movq	-16(%rbp), %rax
	.loc	6 75 9 is_stmt 0        ## visualiser.c:75:9
	movq	24(%rax), %rax
	.loc	6 75 20                 ## visualiser.c:75:20
	movq	$0, 16(%rax)
	.loc	6 76 8 is_stmt 1        ## visualiser.c:76:8
	movq	-16(%rbp), %rax
	.loc	6 76 3 is_stmt 0        ## visualiser.c:76:3
	movq	%rax, %rdi
	callq	_free
	.loc	6 77 2 is_stmt 1        ## visualiser.c:77:2
	jmp	LBB3_9
Ltmp20:
LBB3_8:
	.loc	6 0 2 is_stmt 0         ## visualiser.c:0:2
	movl	$32, %eax
	movl	%eax, %edi
Ltmp21:
	.loc	6 81 16 is_stmt 1       ## visualiser.c:81:16
	callq	_malloc
	.loc	6 81 3 is_stmt 0        ## visualiser.c:81:3
	movq	-16(%rbp), %rdi
	.loc	6 81 14                 ## visualiser.c:81:14
	movq	%rax, 16(%rdi)
	.loc	6 82 22 is_stmt 1       ## visualiser.c:82:22
	movq	-16(%rbp), %rax
	.loc	6 82 3 is_stmt 0        ## visualiser.c:82:3
	movq	-16(%rbp), %rdi
	.loc	6 82 9                  ## visualiser.c:82:9
	movq	16(%rdi), %rdi
	.loc	6 82 20                 ## visualiser.c:82:20
	movq	%rax, 24(%rdi)
	.loc	6 83 3 is_stmt 1        ## visualiser.c:83:3
	movq	-16(%rbp), %rax
	.loc	6 83 9 is_stmt 0        ## visualiser.c:83:9
	movq	16(%rax), %rax
	.loc	6 83 20                 ## visualiser.c:83:20
	movq	$0, 16(%rax)
	.loc	6 84 3 is_stmt 1        ## visualiser.c:84:3
	movq	-16(%rbp), %rax
	.loc	6 84 9 is_stmt 0        ## visualiser.c:84:9
	movq	16(%rax), %rax
	.loc	6 84 21                 ## visualiser.c:84:21
	movl	$0, 8(%rax)
	.loc	6 85 22 is_stmt 1       ## visualiser.c:85:22
	movq	-16(%rbp), %rax
	.loc	6 85 28 is_stmt 0       ## visualiser.c:85:28
	movq	(%rax), %rax
	.loc	6 85 34                 ## visualiser.c:85:34
	movq	8(%rax), %rax
	.loc	6 85 40                 ## visualiser.c:85:40
	movq	-16(%rbp), %rdi
	.loc	6 85 22                 ## visualiser.c:85:22
	movslq	8(%rdi), %rdi
	movq	(%rax,%rdi,8), %rax
	.loc	6 85 3                  ## visualiser.c:85:3
	movq	-16(%rbp), %rdi
	.loc	6 85 9                  ## visualiser.c:85:9
	movq	16(%rdi), %rdi
	.loc	6 85 20                 ## visualiser.c:85:20
	movq	%rax, (%rdi)
Ltmp22:
LBB3_9:
	.loc	6 87 2 is_stmt 1        ## visualiser.c:87:2
	movl	$300, %edi              ## imm = 0x12C
	callq	_SDL_Delay
LBB3_10:
	.loc	6 88 1                  ## visualiser.c:88:1
	addq	$16, %rsp
	popq	%rbp
	retq
Ltmp23:
Lfunc_end3:
	.cfi_endproc
                                        ## -- End function
	.globl	_update_state           ## -- Begin function update_state
	.p2align	4, 0x90
_update_state:                          ## @update_state
Lfunc_begin4:
	.loc	6 91 0                  ## visualiser.c:91:0
	.cfi_startproc
## %bb.0:
	pushq	%rbp
	.cfi_def_cfa_offset 16
	.cfi_offset %rbp, -16
	movq	%rsp, %rbp
	.cfi_def_cfa_register %rbp
	movq	%rdi, -8(%rbp)
Ltmp24:
	.loc	6 106 1 prologue_end    ## visualiser.c:106:1
	popq	%rbp
	retq
Ltmp25:
Lfunc_end4:
	.cfi_endproc
                                        ## -- End function
	.globl	_draw_path              ## -- Begin function draw_path
	.p2align	4, 0x90
_draw_path:                             ## @draw_path
Lfunc_begin5:
	.loc	6 109 0                 ## visualiser.c:109:0
	.cfi_startproc
## %bb.0:
	pushq	%rbp
	.cfi_def_cfa_offset 16
	.cfi_offset %rbp, -16
	movq	%rsp, %rbp
	.cfi_def_cfa_register %rbp
	subq	$80, %rsp
	xorl	%eax, %eax
	movq	%rdi, -8(%rbp)
Ltmp26:
	.loc	6 116 10 prologue_end   ## visualiser.c:116:10
	movq	-8(%rbp), %rdi
	.loc	6 116 13 is_stmt 0      ## visualiser.c:116:13
	movq	72(%rdi), %rdi
	.loc	6 116 8                 ## visualiser.c:116:8
	movq	%rdi, -16(%rbp)
	.loc	6 117 25 is_stmt 1      ## visualiser.c:117:25
	movq	-8(%rbp), %rdi
	.loc	6 117 28 is_stmt 0      ## visualiser.c:117:28
	movq	8(%rdi), %rdi
	.loc	6 117 2                 ## visualiser.c:117:2
	movl	%eax, %esi
	movl	$255, %ecx
	movl	%ecx, %edx
	movl	%ecx, -36(%rbp)         ## 4-byte Spill
	movl	%eax, %ecx
	movl	-36(%rbp), %r8d         ## 4-byte Reload
	callq	_SDL_SetRenderDrawColor
	movl	%eax, -40(%rbp)         ## 4-byte Spill
LBB5_1:                                 ## =>This Inner Loop Header: Depth=1
	.loc	6 118 2 is_stmt 1       ## visualiser.c:118:2
	cmpq	$0, -16(%rbp)
	je	LBB5_5
## %bb.2:                               ##   in Loop: Header=BB5_1 Depth=1
Ltmp27:
	.loc	6 120 7                 ## visualiser.c:120:7
	movq	-16(%rbp), %rax
	cmpq	$0, 16(%rax)
Ltmp28:
	.loc	6 120 7 is_stmt 0       ## visualiser.c:120:7
	je	LBB5_4
## %bb.3:                               ##   in Loop: Header=BB5_1 Depth=1
Ltmp29:
	.loc	6 122 9 is_stmt 1       ## visualiser.c:122:9
	movq	-8(%rbp), %rdi
	movq	-16(%rbp), %rax
	movq	(%rax), %rax
	movl	32(%rax), %esi
	callq	_calc_x
	.loc	6 122 7 is_stmt 0       ## visualiser.c:122:7
	movl	%eax, -20(%rbp)
	.loc	6 123 9 is_stmt 1       ## visualiser.c:123:9
	movq	-8(%rbp), %rdi
	movq	-16(%rbp), %rcx
	movq	16(%rcx), %rcx
	movq	(%rcx), %rcx
	movl	32(%rcx), %esi
	callq	_calc_x
	.loc	6 123 7 is_stmt 0       ## visualiser.c:123:7
	movl	%eax, -24(%rbp)
	.loc	6 124 9 is_stmt 1       ## visualiser.c:124:9
	movq	-8(%rbp), %rdi
	movq	-16(%rbp), %rcx
	movq	(%rcx), %rcx
	movl	36(%rcx), %esi
	callq	_calc_y
	.loc	6 124 7 is_stmt 0       ## visualiser.c:124:7
	movl	%eax, -28(%rbp)
	.loc	6 125 9 is_stmt 1       ## visualiser.c:125:9
	movq	-8(%rbp), %rdi
	movq	-16(%rbp), %rcx
	movq	16(%rcx), %rcx
	movq	(%rcx), %rcx
	movl	36(%rcx), %esi
	callq	_calc_y
	xorl	%esi, %esi
	.loc	6 125 7 is_stmt 0       ## visualiser.c:125:7
	movl	%eax, -32(%rbp)
	.loc	6 126 18 is_stmt 1      ## visualiser.c:126:18
	movq	-8(%rbp), %rcx
	.loc	6 126 21 is_stmt 0      ## visualiser.c:126:21
	movq	8(%rcx), %rdi
	.loc	6 126 31                ## visualiser.c:126:31
	movl	-20(%rbp), %eax
	movw	%ax, %dx
	.loc	6 126 35                ## visualiser.c:126:35
	movl	-28(%rbp), %eax
	movw	%ax, %r8w
	.loc	6 126 39                ## visualiser.c:126:39
	movl	-24(%rbp), %eax
	movw	%ax, %r9w
	.loc	6 126 43                ## visualiser.c:126:43
	movl	-32(%rbp), %eax
	movw	%ax, %r10w
	.loc	6 126 4                 ## visualiser.c:126:4
	movswl	%dx, %eax
	movl	%esi, -44(%rbp)         ## 4-byte Spill
	movl	%eax, %esi
	movswl	%r8w, %edx
	movswl	%r9w, %ecx
	movswl	%r10w, %r8d
	movl	$3, %r9d
	movl	$0, (%rsp)
	movl	$255, 8(%rsp)
	movl	$0, 16(%rsp)
	movl	$255, 24(%rsp)
	callq	_thickLineRGBA
	movl	%eax, -48(%rbp)         ## 4-byte Spill
Ltmp30:
LBB5_4:                                 ##   in Loop: Header=BB5_1 Depth=1
	.loc	6 128 11 is_stmt 1      ## visualiser.c:128:11
	movq	-16(%rbp), %rax
	.loc	6 128 18 is_stmt 0      ## visualiser.c:128:18
	movq	16(%rax), %rax
	.loc	6 128 9                 ## visualiser.c:128:9
	movq	%rax, -16(%rbp)
Ltmp31:
	.loc	6 118 2 is_stmt 1       ## visualiser.c:118:2
	jmp	LBB5_1
LBB5_5:
	.loc	6 130 1                 ## visualiser.c:130:1
	addq	$80, %rsp
	popq	%rbp
	retq
Ltmp32:
Lfunc_end5:
	.cfi_endproc
                                        ## -- End function
	.globl	_draw_links_list        ## -- Begin function draw_links_list
	.p2align	4, 0x90
_draw_links_list:                       ## @draw_links_list
Lfunc_begin6:
	.loc	6 133 0                 ## visualiser.c:133:0
	.cfi_startproc
## %bb.0:
	pushq	%rbp
	.cfi_def_cfa_offset 16
	.cfi_offset %rbp, -16
	movq	%rsp, %rbp
	.cfi_def_cfa_register %rbp
	subq	$64, %rsp
	movq	%rdi, -8(%rbp)
Ltmp33:
	.loc	6 134 6 prologue_end    ## visualiser.c:134:6
	movl	$20, -12(%rbp)
	.loc	6 135 16                ## visualiser.c:135:16
	movq	-8(%rbp), %rdi
	.loc	6 135 19 is_stmt 0      ## visualiser.c:135:19
	movq	128(%rdi), %rdi
	.loc	6 135 28                ## visualiser.c:135:28
	movq	24(%rdi), %rdi
	.loc	6 135 10                ## visualiser.c:135:10
	movq	%rdi, -24(%rbp)
LBB6_1:                                 ## =>This Inner Loop Header: Depth=1
	.loc	6 139 2 is_stmt 1       ## visualiser.c:139:2
	cmpq	$0, -24(%rbp)
	je	LBB6_3
## %bb.2:                               ##   in Loop: Header=BB6_1 Depth=1
Ltmp34:
	.loc	6 141 20                ## visualiser.c:141:20
	movq	-24(%rbp), %rax
	.loc	6 141 25 is_stmt 0      ## visualiser.c:141:25
	movq	8(%rax), %rax
	.loc	6 141 31                ## visualiser.c:141:31
	movq	48(%rax), %rdi
	.loc	6 141 9                 ## visualiser.c:141:9
	leaq	L_.str(%rip), %rsi
	callq	_ft_strjoin
	.loc	6 141 7                 ## visualiser.c:141:7
	movq	%rax, -32(%rbp)
	.loc	6 142 21 is_stmt 1      ## visualiser.c:142:21
	movq	-32(%rbp), %rdi
	.loc	6 142 26 is_stmt 0      ## visualiser.c:142:26
	movq	-24(%rbp), %rax
	.loc	6 142 31                ## visualiser.c:142:31
	movq	(%rax), %rax
	.loc	6 142 35                ## visualiser.c:142:35
	movq	48(%rax), %rsi
	.loc	6 142 10                ## visualiser.c:142:10
	callq	_ft_strjoin
	.loc	6 142 8                 ## visualiser.c:142:8
	movq	%rax, -40(%rbp)
	.loc	6 143 14 is_stmt 1      ## visualiser.c:143:14
	movq	-8(%rbp), %rax
	.loc	6 143 17 is_stmt 0      ## visualiser.c:143:17
	movq	8(%rax), %rdi
	.loc	6 143 30                ## visualiser.c:143:30
	movl	-12(%rbp), %ecx
	movw	%cx, %dx
	.loc	6 143 33                ## visualiser.c:143:33
	movq	-40(%rbp), %rcx
	.loc	6 143 3                 ## visualiser.c:143:3
	movl	$5, %esi
	movswl	%dx, %edx
	movl	$255, %r8d
	movl	%r8d, -44(%rbp)         ## 4-byte Spill
	movl	-44(%rbp), %r9d         ## 4-byte Reload
	movl	$255, (%rsp)
	movl	$255, 8(%rsp)
	callq	_stringRGBA
	.loc	6 144 8 is_stmt 1       ## visualiser.c:144:8
	movq	-32(%rbp), %rdi
	.loc	6 144 3 is_stmt 0       ## visualiser.c:144:3
	movl	%eax, -48(%rbp)         ## 4-byte Spill
	callq	_free
	.loc	6 145 8 is_stmt 1       ## visualiser.c:145:8
	movq	-40(%rbp), %rdi
	.loc	6 145 3 is_stmt 0       ## visualiser.c:145:3
	callq	_free
	.loc	6 146 5 is_stmt 1       ## visualiser.c:146:5
	movl	-12(%rbp), %eax
	addl	$10, %eax
	movl	%eax, -12(%rbp)
	.loc	6 147 9                 ## visualiser.c:147:9
	movq	-24(%rbp), %rcx
	.loc	6 147 14 is_stmt 0      ## visualiser.c:147:14
	movq	16(%rcx), %rcx
	.loc	6 147 7                 ## visualiser.c:147:7
	movq	%rcx, -24(%rbp)
Ltmp35:
	.loc	6 139 2 is_stmt 1       ## visualiser.c:139:2
	jmp	LBB6_1
LBB6_3:
	.loc	6 149 1                 ## visualiser.c:149:1
	addq	$64, %rsp
	popq	%rbp
	retq
Ltmp36:
Lfunc_end6:
	.cfi_endproc
                                        ## -- End function
	.globl	_draw_paths             ## -- Begin function draw_paths
	.p2align	4, 0x90
_draw_paths:                            ## @draw_paths
Lfunc_begin7:
	.loc	6 153 0                 ## visualiser.c:153:0
	.cfi_startproc
## %bb.0:
	pushq	%rbp
	.cfi_def_cfa_offset 16
	.cfi_offset %rbp, -16
	movq	%rsp, %rbp
	.cfi_def_cfa_register %rbp
	subq	$128, %rsp
	movq	%rdi, -8(%rbp)
Ltmp37:
	.loc	6 157 6 prologue_end    ## visualiser.c:157:6
	movl	$0, -28(%rbp)
	.loc	6 158 9                 ## visualiser.c:158:9
	movq	-8(%rbp), %rdi
	.loc	6 158 12 is_stmt 0      ## visualiser.c:158:12
	movq	80(%rdi), %rdi
	.loc	6 158 7                 ## visualiser.c:158:7
	movq	%rdi, -16(%rbp)
LBB7_1:                                 ## =>This Loop Header: Depth=1
                                        ##     Child Loop BB7_3 Depth 2
	.loc	6 160 2 is_stmt 1       ## visualiser.c:160:2
	cmpq	$0, -16(%rbp)
	je	LBB7_8
## %bb.2:                               ##   in Loop: Header=BB7_1 Depth=1
Ltmp38:
	.loc	6 162 10                ## visualiser.c:162:10
	movq	-16(%rbp), %rax
	.loc	6 162 16 is_stmt 0      ## visualiser.c:162:16
	movq	(%rax), %rax
	.loc	6 162 8                 ## visualiser.c:162:8
	movq	%rax, -24(%rbp)
LBB7_3:                                 ##   Parent Loop BB7_1 Depth=1
                                        ## =>  This Inner Loop Header: Depth=2
	.loc	6 0 8                   ## visualiser.c:0:8
	xorl	%eax, %eax
	movb	%al, %cl
	.loc	6 163 10 is_stmt 1      ## visualiser.c:163:10
	cmpq	$0, -24(%rbp)
	.loc	6 163 15 is_stmt 0      ## visualiser.c:163:15
	movb	%cl, -41(%rbp)          ## 1-byte Spill
	je	LBB7_5
## %bb.4:                               ##   in Loop: Header=BB7_3 Depth=2
	.loc	6 163 18                ## visualiser.c:163:18
	movq	-24(%rbp), %rax
	.loc	6 163 15                ## visualiser.c:163:15
	cmpq	$0, 16(%rax)
	setne	%cl
	movb	%cl, -41(%rbp)          ## 1-byte Spill
LBB7_5:                                 ##   in Loop: Header=BB7_3 Depth=2
	.loc	6 0 0                   ## visualiser.c:0:0
	movb	-41(%rbp), %al          ## 1-byte Reload
	.loc	6 163 3                 ## visualiser.c:163:3
	testb	$1, %al
	jne	LBB7_6
	jmp	LBB7_7
LBB7_6:                                 ##   in Loop: Header=BB7_3 Depth=2
Ltmp39:
	.loc	6 165 18 is_stmt 1      ## visualiser.c:165:18
	movq	-8(%rbp), %rax
	.loc	6 165 21 is_stmt 0      ## visualiser.c:165:21
	movq	8(%rax), %rdi
	.loc	6 165 31                ## visualiser.c:165:31
	movq	-8(%rbp), %rax
	movq	-24(%rbp), %rcx
	movq	(%rcx), %rcx
	movl	32(%rcx), %esi
	movq	%rdi, -56(%rbp)         ## 8-byte Spill
	movq	%rax, %rdi
	callq	_calc_x
	movw	%ax, %dx
	.loc	6 165 52                ## visualiser.c:165:52
	movq	-8(%rbp), %rdi
	movq	-24(%rbp), %rcx
	movq	(%rcx), %rcx
	movl	36(%rcx), %esi
	movw	%dx, -58(%rbp)          ## 2-byte Spill
	callq	_calc_y
	movw	%ax, %dx
	.loc	6 165 73                ## visualiser.c:165:73
	movq	-8(%rbp), %rdi
	movq	-24(%rbp), %rcx
	movq	16(%rcx), %rcx
	movq	(%rcx), %rcx
	movl	32(%rcx), %esi
	movw	%dx, -60(%rbp)          ## 2-byte Spill
	callq	_calc_x
	movw	%ax, %dx
	.loc	6 165 100               ## visualiser.c:165:100
	movq	-8(%rbp), %rdi
	movq	-24(%rbp), %rcx
	movq	16(%rcx), %rcx
	movq	(%rcx), %rcx
	movl	36(%rcx), %esi
	movw	%dx, -62(%rbp)          ## 2-byte Spill
	callq	_calc_y
	xorl	%esi, %esi
	movw	%ax, %dx
	.loc	6 165 4                 ## visualiser.c:165:4
	movq	-56(%rbp), %rdi         ## 8-byte Reload
	movw	-58(%rbp), %r8w         ## 2-byte Reload
	movswl	%r8w, %eax
	movl	%esi, -68(%rbp)         ## 4-byte Spill
	movl	%eax, %esi
	movw	-60(%rbp), %r9w         ## 2-byte Reload
	movswl	%r9w, %eax
	movw	%dx, -70(%rbp)          ## 2-byte Spill
	movl	%eax, %edx
	movw	-62(%rbp), %r10w        ## 2-byte Reload
	movswl	%r10w, %ecx
	movw	-70(%rbp), %r11w        ## 2-byte Reload
	movswl	%r11w, %r8d
	movl	$3, %r9d
	movl	$0, (%rsp)
	movl	$255, 8(%rsp)
	movl	$0, 16(%rsp)
	movl	$255, 24(%rsp)
	callq	_thickLineRGBA
	.loc	6 166 11 is_stmt 1      ## visualiser.c:166:11
	movq	-24(%rbp), %rdi
	.loc	6 166 17 is_stmt 0      ## visualiser.c:166:17
	movq	16(%rdi), %rdi
	.loc	6 166 9                 ## visualiser.c:166:9
	movq	%rdi, -24(%rbp)
Ltmp40:
	.loc	6 163 3 is_stmt 1       ## visualiser.c:163:3
	movl	%eax, -76(%rbp)         ## 4-byte Spill
	jmp	LBB7_3
LBB7_7:                                 ##   in Loop: Header=BB7_1 Depth=1
	.loc	6 168 4                 ## visualiser.c:168:4
	movl	-28(%rbp), %eax
	addl	$1, %eax
	movl	%eax, -28(%rbp)
	.loc	6 169 10                ## visualiser.c:169:10
	movq	-16(%rbp), %rcx
	.loc	6 169 16 is_stmt 0      ## visualiser.c:169:16
	movq	16(%rcx), %rcx
	.loc	6 169 8                 ## visualiser.c:169:8
	movq	%rcx, -16(%rbp)
Ltmp41:
	.loc	6 160 2 is_stmt 1       ## visualiser.c:160:2
	jmp	LBB7_1
LBB7_8:
	.loc	6 171 50                ## visualiser.c:171:50
	movl	-28(%rbp), %edi
	.loc	6 171 42 is_stmt 0      ## visualiser.c:171:42
	callq	_ft_itoa
	.loc	6 171 14                ## visualiser.c:171:14
	leaq	L_.str.1(%rip), %rdi
	movq	%rax, %rsi
	callq	_ft_strjoin
	.loc	6 171 8                 ## visualiser.c:171:8
	movq	%rax, -40(%rbp)
	.loc	6 172 13 is_stmt 1      ## visualiser.c:172:13
	movq	-8(%rbp), %rax
	.loc	6 172 16 is_stmt 0      ## visualiser.c:172:16
	movq	8(%rax), %rdi
	.loc	6 172 33                ## visualiser.c:172:33
	movq	-40(%rbp), %rcx
	.loc	6 172 2                 ## visualiser.c:172:2
	movl	$5, %esi
	movl	$20, %edx
	movl	$255, %r8d
	movl	%r8d, -80(%rbp)         ## 4-byte Spill
	movl	-80(%rbp), %r9d         ## 4-byte Reload
	movl	$255, (%rsp)
	movl	$255, 8(%rsp)
	callq	_stringRGBA
	.loc	6 173 7 is_stmt 1       ## visualiser.c:173:7
	movq	-40(%rbp), %rdi
	.loc	6 173 2 is_stmt 0       ## visualiser.c:173:2
	movl	%eax, -84(%rbp)         ## 4-byte Spill
	callq	_free
	.loc	6 186 1 is_stmt 1       ## visualiser.c:186:1
	addq	$128, %rsp
	popq	%rbp
	retq
Ltmp42:
Lfunc_end7:
	.cfi_endproc
                                        ## -- End function
	.globl	_render_state           ## -- Begin function render_state
	.p2align	4, 0x90
_render_state:                          ## @render_state
Lfunc_begin8:
	.loc	6 189 0                 ## visualiser.c:189:0
	.cfi_startproc
## %bb.0:
	pushq	%rbp
	.cfi_def_cfa_offset 16
	.cfi_offset %rbp, -16
	movq	%rsp, %rbp
	.cfi_def_cfa_register %rbp
	subq	$16, %rsp
	movq	%rdi, -8(%rbp)
Ltmp43:
	.loc	6 190 18 prologue_end   ## visualiser.c:190:18
	movq	-8(%rbp), %rdi
	.loc	6 190 21 is_stmt 0      ## visualiser.c:190:21
	movq	8(%rdi), %rdi
	.loc	6 190 2                 ## visualiser.c:190:2
	callq	_SDL_RenderClear
	.loc	6 192 13 is_stmt 1      ## visualiser.c:192:13
	movq	-8(%rbp), %rdi
	.loc	6 192 2 is_stmt 0       ## visualiser.c:192:2
	movl	%eax, -12(%rbp)         ## 4-byte Spill
	callq	_draw_paths
	.loc	6 196 13 is_stmt 1      ## visualiser.c:196:13
	movq	-8(%rbp), %rdi
	.loc	6 196 2 is_stmt 0       ## visualiser.c:196:2
	callq	_draw_links
	.loc	6 197 13 is_stmt 1      ## visualiser.c:197:13
	movq	-8(%rbp), %rdi
	.loc	6 197 2 is_stmt 0       ## visualiser.c:197:2
	callq	_draw_nodes
	.loc	6 200 13 is_stmt 1      ## visualiser.c:200:13
	movq	-8(%rbp), %rdi
	.loc	6 200 2 is_stmt 0       ## visualiser.c:200:2
	callq	_draw_stats
	.loc	6 203 12 is_stmt 1      ## visualiser.c:203:12
	movq	-8(%rbp), %rdi
	.loc	6 203 2 is_stmt 0       ## visualiser.c:203:2
	callq	_draw_ants
	xorl	%eax, %eax
	.loc	6 215 25 is_stmt 1      ## visualiser.c:215:25
	movq	-8(%rbp), %rdi
	.loc	6 215 28 is_stmt 0      ## visualiser.c:215:28
	movq	8(%rdi), %rdi
	.loc	6 215 2                 ## visualiser.c:215:2
	movl	%eax, %esi
	movl	%eax, %edx
	movl	%eax, %ecx
	movl	$255, %r8d
	callq	_SDL_SetRenderDrawColor
	.loc	6 217 20 is_stmt 1      ## visualiser.c:217:20
	movq	-8(%rbp), %rdi
	.loc	6 217 23 is_stmt 0      ## visualiser.c:217:23
	movq	8(%rdi), %rdi
	.loc	6 217 2                 ## visualiser.c:217:2
	movl	%eax, -16(%rbp)         ## 4-byte Spill
	callq	_SDL_RenderPresent
	.loc	6 218 1 is_stmt 1       ## visualiser.c:218:1
	addq	$16, %rsp
	popq	%rbp
	retq
Ltmp44:
Lfunc_end8:
	.cfi_endproc
                                        ## -- End function
	.globl	_change_zoom            ## -- Begin function change_zoom
	.p2align	4, 0x90
_change_zoom:                           ## @change_zoom
Lfunc_begin9:
	.loc	6 221 0                 ## visualiser.c:221:0
	.cfi_startproc
## %bb.0:
	pushq	%rbp
	.cfi_def_cfa_offset 16
	.cfi_offset %rbp, -16
	movq	%rsp, %rbp
	.cfi_def_cfa_register %rbp
	movq	%rdi, -8(%rbp)
	movl	%esi, -12(%rbp)
Ltmp45:
	.loc	6 222 6 prologue_end    ## visualiser.c:222:6
	movq	-8(%rbp), %rdi
	.loc	6 222 14 is_stmt 0      ## visualiser.c:222:14
	cmpl	$1, 120(%rdi)
	.loc	6 222 18                ## visualiser.c:222:18
	jle	LBB9_3
## %bb.1:
	.loc	6 222 23                ## visualiser.c:222:23
	cmpl	$0, -12(%rbp)
Ltmp46:
	.loc	6 222 6                 ## visualiser.c:222:6
	jge	LBB9_3
## %bb.2:
Ltmp47:
	.loc	6 223 3 is_stmt 1       ## visualiser.c:223:3
	movq	-8(%rbp), %rax
	.loc	6 223 10 is_stmt 0      ## visualiser.c:223:10
	movl	120(%rax), %ecx
	addl	$-1, %ecx
	movl	%ecx, 120(%rax)
Ltmp48:
LBB9_3:
	.loc	6 224 8 is_stmt 1       ## visualiser.c:224:8
	cmpl	$0, -12(%rbp)
Ltmp49:
	.loc	6 224 6 is_stmt 0       ## visualiser.c:224:6
	jle	LBB9_5
## %bb.4:
Ltmp50:
	.loc	6 225 3 is_stmt 1       ## visualiser.c:225:3
	movq	-8(%rbp), %rax
	.loc	6 225 10 is_stmt 0      ## visualiser.c:225:10
	movl	120(%rax), %ecx
	addl	$1, %ecx
	movl	%ecx, 120(%rax)
Ltmp51:
LBB9_5:
	.loc	6 226 1 is_stmt 1       ## visualiser.c:226:1
	popq	%rbp
	retq
Ltmp52:
Lfunc_end9:
	.cfi_endproc
                                        ## -- End function
	.globl	_handle_events          ## -- Begin function handle_events
	.p2align	4, 0x90
_handle_events:                         ## @handle_events
Lfunc_begin10:
	.loc	6 229 0                 ## visualiser.c:229:0
	.cfi_startproc
## %bb.0:
	pushq	%rbp
	.cfi_def_cfa_offset 16
	.cfi_offset %rbp, -16
	movq	%rsp, %rbp
	.cfi_def_cfa_register %rbp
	subq	$16, %rsp
	movq	%rdi, -8(%rbp)
LBB10_1:                                ## =>This Inner Loop Header: Depth=1
Ltmp53:
	.loc	6 230 24 prologue_end   ## visualiser.c:230:24
	movq	-8(%rbp), %rax
	.loc	6 230 27 is_stmt 0      ## visualiser.c:230:27
	addq	$16, %rax
	.loc	6 230 9                 ## visualiser.c:230:9
	movq	%rax, %rdi
	callq	_SDL_PollEvent
	.loc	6 230 2                 ## visualiser.c:230:2
	cmpl	$0, %eax
	je	LBB10_28
## %bb.2:                               ##   in Loop: Header=BB10_1 Depth=1
Ltmp54:
	.loc	6 232 7 is_stmt 1       ## visualiser.c:232:7
	movq	-8(%rbp), %rax
	.loc	6 232 21 is_stmt 0      ## visualiser.c:232:21
	cmpl	$256, 16(%rax)          ## imm = 0x100
Ltmp55:
	.loc	6 232 7                 ## visualiser.c:232:7
	jne	LBB10_4
## %bb.3:                               ##   in Loop: Header=BB10_1 Depth=1
Ltmp56:
	.loc	6 233 4 is_stmt 1       ## visualiser.c:233:4
	movq	-8(%rbp), %rax
	.loc	6 233 15 is_stmt 0      ## visualiser.c:233:15
	movb	$0, 88(%rax)
Ltmp57:
LBB10_4:                                ##   in Loop: Header=BB10_1 Depth=1
	.loc	6 234 7 is_stmt 1       ## visualiser.c:234:7
	movq	-8(%rbp), %rax
	.loc	6 234 21 is_stmt 0      ## visualiser.c:234:21
	cmpl	$768, 16(%rax)          ## imm = 0x300
Ltmp58:
	.loc	6 234 7                 ## visualiser.c:234:7
	jne	LBB10_10
## %bb.5:                               ##   in Loop: Header=BB10_1 Depth=1
Ltmp59:
	.loc	6 236 8 is_stmt 1       ## visualiser.c:236:8
	movq	-8(%rbp), %rax
	.loc	6 236 32 is_stmt 0      ## visualiser.c:236:32
	cmpl	$119, 36(%rax)
Ltmp60:
	.loc	6 236 8                 ## visualiser.c:236:8
	jne	LBB10_7
## %bb.6:                               ##   in Loop: Header=BB10_1 Depth=1
Ltmp61:
	.loc	6 237 17 is_stmt 1      ## visualiser.c:237:17
	movq	-8(%rbp), %rdi
	.loc	6 237 5 is_stmt 0       ## visualiser.c:237:5
	movl	$4294967295, %esi       ## imm = 0xFFFFFFFF
	callq	_change_zoom
Ltmp62:
LBB10_7:                                ##   in Loop: Header=BB10_1 Depth=1
	.loc	6 238 8 is_stmt 1       ## visualiser.c:238:8
	movq	-8(%rbp), %rax
	.loc	6 238 32 is_stmt 0      ## visualiser.c:238:32
	cmpl	$97, 36(%rax)
Ltmp63:
	.loc	6 238 8                 ## visualiser.c:238:8
	jne	LBB10_9
## %bb.8:                               ##   in Loop: Header=BB10_1 Depth=1
Ltmp64:
	.loc	6 239 17 is_stmt 1      ## visualiser.c:239:17
	movq	-8(%rbp), %rdi
	.loc	6 239 5 is_stmt 0       ## visualiser.c:239:5
	movl	$1, %esi
	callq	_change_zoom
Ltmp65:
LBB10_9:                                ##   in Loop: Header=BB10_1 Depth=1
	.loc	6 240 3 is_stmt 1       ## visualiser.c:240:3
	jmp	LBB10_10
Ltmp66:
LBB10_10:                               ##   in Loop: Header=BB10_1 Depth=1
	.loc	6 241 6                 ## visualiser.c:241:6
	movq	-8(%rbp), %rax
	.loc	6 241 20 is_stmt 0      ## visualiser.c:241:20
	cmpl	$1027, 16(%rax)         ## imm = 0x403
Ltmp67:
	.loc	6 241 6                 ## visualiser.c:241:6
	jne	LBB10_17
## %bb.11:                              ##   in Loop: Header=BB10_1 Depth=1
Ltmp68:
	.loc	6 243 7 is_stmt 1       ## visualiser.c:243:7
	movq	-8(%rbp), %rax
	.loc	6 243 24 is_stmt 0      ## visualiser.c:243:24
	cmpl	$0, 36(%rax)
Ltmp69:
	.loc	6 243 7                 ## visualiser.c:243:7
	jle	LBB10_13
## %bb.12:                              ##   in Loop: Header=BB10_1 Depth=1
Ltmp70:
	.loc	6 245 20 is_stmt 1      ## visualiser.c:245:20
	movq	-8(%rbp), %rax
	.loc	6 245 36 is_stmt 0      ## visualiser.c:245:36
	movl	36(%rax), %ecx
	.loc	6 245 5                 ## visualiser.c:245:5
	movq	-8(%rbp), %rax
	.loc	6 245 17                ## visualiser.c:245:17
	movl	92(%rax), %edx
	subl	%ecx, %edx
	movl	%edx, 92(%rax)
	.loc	6 246 20 is_stmt 1      ## visualiser.c:246:20
	movq	-8(%rbp), %rax
	.loc	6 246 36 is_stmt 0      ## visualiser.c:246:36
	movl	40(%rax), %ecx
	.loc	6 246 5                 ## visualiser.c:246:5
	movq	-8(%rbp), %rax
	.loc	6 246 17                ## visualiser.c:246:17
	movl	96(%rax), %edx
	subl	%ecx, %edx
	movl	%edx, 96(%rax)
	.loc	6 247 5 is_stmt 1       ## visualiser.c:247:5
	movq	-8(%rbp), %rax
	.loc	6 247 12 is_stmt 0      ## visualiser.c:247:12
	movl	120(%rax), %ecx
	addl	$1, %ecx
	movl	%ecx, 120(%rax)
	.loc	6 248 4 is_stmt 1       ## visualiser.c:248:4
	jmp	LBB10_16
Ltmp71:
LBB10_13:                               ##   in Loop: Header=BB10_1 Depth=1
	.loc	6 249 12                ## visualiser.c:249:12
	movq	-8(%rbp), %rax
	.loc	6 249 29 is_stmt 0      ## visualiser.c:249:29
	cmpl	$0, 36(%rax)
Ltmp72:
	.loc	6 249 12                ## visualiser.c:249:12
	jge	LBB10_15
## %bb.14:                              ##   in Loop: Header=BB10_1 Depth=1
Ltmp73:
	.loc	6 251 20 is_stmt 1      ## visualiser.c:251:20
	movq	-8(%rbp), %rax
	.loc	6 251 36 is_stmt 0      ## visualiser.c:251:36
	movl	36(%rax), %ecx
	.loc	6 251 5                 ## visualiser.c:251:5
	movq	-8(%rbp), %rax
	.loc	6 251 17                ## visualiser.c:251:17
	movl	92(%rax), %edx
	subl	%ecx, %edx
	movl	%edx, 92(%rax)
	.loc	6 252 20 is_stmt 1      ## visualiser.c:252:20
	movq	-8(%rbp), %rax
	.loc	6 252 36 is_stmt 0      ## visualiser.c:252:36
	movl	40(%rax), %ecx
	.loc	6 252 5                 ## visualiser.c:252:5
	movq	-8(%rbp), %rax
	.loc	6 252 17                ## visualiser.c:252:17
	movl	96(%rax), %edx
	subl	%ecx, %edx
	movl	%edx, 96(%rax)
	.loc	6 253 5 is_stmt 1       ## visualiser.c:253:5
	movq	-8(%rbp), %rax
	.loc	6 253 12 is_stmt 0      ## visualiser.c:253:12
	movl	120(%rax), %ecx
	addl	$-1, %ecx
	movl	%ecx, 120(%rax)
Ltmp74:
LBB10_15:                               ##   in Loop: Header=BB10_1 Depth=1
	.loc	6 0 12                  ## visualiser.c:0:12
	jmp	LBB10_16
LBB10_16:                               ##   in Loop: Header=BB10_1 Depth=1
	.loc	6 255 3 is_stmt 1       ## visualiser.c:255:3
	jmp	LBB10_17
Ltmp75:
LBB10_17:                               ##   in Loop: Header=BB10_1 Depth=1
	.loc	6 256 7                 ## visualiser.c:256:7
	movq	-8(%rbp), %rax
	.loc	6 256 21 is_stmt 0      ## visualiser.c:256:21
	cmpl	$1025, 16(%rax)         ## imm = 0x401
Ltmp76:
	.loc	6 256 7                 ## visualiser.c:256:7
	jne	LBB10_21
## %bb.18:                              ##   in Loop: Header=BB10_1 Depth=1
Ltmp77:
	.loc	6 258 8 is_stmt 1       ## visualiser.c:258:8
	movq	-8(%rbp), %rax
	movzbl	32(%rax), %ecx
	.loc	6 258 31 is_stmt 0      ## visualiser.c:258:31
	cmpl	$1, %ecx
Ltmp78:
	.loc	6 258 8                 ## visualiser.c:258:8
	jne	LBB10_20
## %bb.19:                              ##   in Loop: Header=BB10_1 Depth=1
Ltmp79:
	.loc	6 260 5 is_stmt 1       ## visualiser.c:260:5
	movq	-8(%rbp), %rax
	.loc	6 260 14 is_stmt 0      ## visualiser.c:260:14
	movb	$1, 89(%rax)
Ltmp80:
LBB10_20:                               ##   in Loop: Header=BB10_1 Depth=1
	.loc	6 262 3 is_stmt 1       ## visualiser.c:262:3
	jmp	LBB10_21
Ltmp81:
LBB10_21:                               ##   in Loop: Header=BB10_1 Depth=1
	.loc	6 263 7                 ## visualiser.c:263:7
	movq	-8(%rbp), %rax
Ltmp82:
	.loc	6 263 7 is_stmt 0       ## visualiser.c:263:7
	testb	$1, 89(%rax)
	je	LBB10_25
## %bb.22:                              ##   in Loop: Header=BB10_1 Depth=1
Ltmp83:
	.loc	6 265 8 is_stmt 1       ## visualiser.c:265:8
	movq	-8(%rbp), %rax
	.loc	6 265 22 is_stmt 0      ## visualiser.c:265:22
	cmpl	$1024, 16(%rax)         ## imm = 0x400
Ltmp84:
	.loc	6 265 8                 ## visualiser.c:265:8
	jne	LBB10_24
## %bb.23:                              ##   in Loop: Header=BB10_1 Depth=1
Ltmp85:
	.loc	6 267 20 is_stmt 1      ## visualiser.c:267:20
	movq	-8(%rbp), %rax
	.loc	6 267 36 is_stmt 0      ## visualiser.c:267:36
	movl	44(%rax), %ecx
	.loc	6 267 5                 ## visualiser.c:267:5
	movq	-8(%rbp), %rax
	.loc	6 267 17                ## visualiser.c:267:17
	addl	92(%rax), %ecx
	movl	%ecx, 92(%rax)
	.loc	6 268 20 is_stmt 1      ## visualiser.c:268:20
	movq	-8(%rbp), %rax
	.loc	6 268 36 is_stmt 0      ## visualiser.c:268:36
	movl	48(%rax), %ecx
	.loc	6 268 5                 ## visualiser.c:268:5
	movq	-8(%rbp), %rax
	.loc	6 268 17                ## visualiser.c:268:17
	addl	96(%rax), %ecx
	movl	%ecx, 96(%rax)
Ltmp86:
LBB10_24:                               ##   in Loop: Header=BB10_1 Depth=1
	.loc	6 270 3 is_stmt 1       ## visualiser.c:270:3
	jmp	LBB10_25
Ltmp87:
LBB10_25:                               ##   in Loop: Header=BB10_1 Depth=1
	.loc	6 271 7                 ## visualiser.c:271:7
	movq	-8(%rbp), %rax
	.loc	6 271 21 is_stmt 0      ## visualiser.c:271:21
	cmpl	$1026, 16(%rax)         ## imm = 0x402
Ltmp88:
	.loc	6 271 7                 ## visualiser.c:271:7
	jne	LBB10_27
## %bb.26:                              ##   in Loop: Header=BB10_1 Depth=1
Ltmp89:
	.loc	6 273 4 is_stmt 1       ## visualiser.c:273:4
	movq	-8(%rbp), %rax
	.loc	6 273 13 is_stmt 0      ## visualiser.c:273:13
	movb	$0, 89(%rax)
Ltmp90:
LBB10_27:                               ##   in Loop: Header=BB10_1 Depth=1
	.loc	6 230 2 is_stmt 1       ## visualiser.c:230:2
	jmp	LBB10_1
LBB10_28:
	.loc	6 276 1                 ## visualiser.c:276:1
	addq	$16, %rsp
	popq	%rbp
	retq
Ltmp91:
Lfunc_end10:
	.cfi_endproc
                                        ## -- End function
	.globl	_main                   ## -- Begin function main
	.p2align	4, 0x90
_main:                                  ## @main
Lfunc_begin11:
	.loc	6 279 0                 ## visualiser.c:279:0
	.cfi_startproc
## %bb.0:
	pushq	%rbp
	.cfi_def_cfa_offset 16
	.cfi_offset %rbp, -16
	movq	%rsp, %rbp
	.cfi_def_cfa_register %rbp
	subq	$48, %rsp
	movl	$0, -4(%rbp)
Ltmp92:
	.loc	6 280 19 prologue_end   ## visualiser.c:280:19
	callq	_init_state
	.loc	6 280 11 is_stmt 0      ## visualiser.c:280:11
	movq	%rax, -16(%rbp)
	.loc	6 281 19 is_stmt 1      ## visualiser.c:281:19
	movb	$0, %al
	callq	_get_infos
	.loc	6 281 2 is_stmt 0       ## visualiser.c:281:2
	movq	-16(%rbp), %rcx
	.loc	6 281 17                ## visualiser.c:281:17
	movq	%rax, 128(%rcx)
	.loc	6 283 2 is_stmt 1       ## visualiser.c:283:2
	movl	$62001, %edi            ## imm = 0xF231
	callq	_SDL_Init
	.loc	6 285 18                ## visualiser.c:285:18
	leaq	L_.str.2(%rip), %rdi
	movl	$805240832, %edx        ## imm = 0x2FFF0000
	movl	%edx, %esi
	movl	$1280, %ecx             ## imm = 0x500
	movl	$960, %r8d              ## imm = 0x3C0
	movl	$4, %r9d
	movl	%eax, -24(%rbp)         ## 4-byte Spill
	callq	_SDL_CreateWindow
	.loc	6 285 2 is_stmt 0       ## visualiser.c:285:2
	movq	-16(%rbp), %rdi
	.loc	6 285 16                ## visualiser.c:285:16
	movq	%rax, (%rdi)
	.loc	6 286 39 is_stmt 1      ## visualiser.c:286:39
	movq	-16(%rbp), %rax
	.loc	6 286 46 is_stmt 0      ## visualiser.c:286:46
	movq	(%rax), %rdi
	.loc	6 286 20                ## visualiser.c:286:20
	movl	$4294967295, %esi       ## imm = 0xFFFFFFFF
	movl	$2, %edx
	callq	_SDL_CreateRenderer
	movl	$32, %ecx
	movl	%ecx, %edi
	.loc	6 286 2                 ## visualiser.c:286:2
	movq	-16(%rbp), %r10
	.loc	6 286 18                ## visualiser.c:286:18
	movq	%rax, 8(%r10)
	.loc	6 287 2 is_stmt 1       ## visualiser.c:287:2
	movq	-16(%rbp), %rax
	.loc	6 287 17 is_stmt 0      ## visualiser.c:287:17
	movb	$1, 88(%rax)
	.loc	6 289 16 is_stmt 1      ## visualiser.c:289:16
	callq	_malloc
	xorl	%ecx, %ecx
	.loc	6 289 2 is_stmt 0       ## visualiser.c:289:2
	movq	-16(%rbp), %rdi
	.loc	6 289 14                ## visualiser.c:289:14
	movq	%rax, 72(%rdi)
	.loc	6 290 22 is_stmt 1      ## visualiser.c:290:22
	movq	-16(%rbp), %rax
	.loc	6 290 29 is_stmt 0      ## visualiser.c:290:29
	movq	128(%rax), %rax
	.loc	6 290 38                ## visualiser.c:290:38
	movq	8(%rax), %rax
	.loc	6 290 2                 ## visualiser.c:290:2
	movq	-16(%rbp), %rdi
	.loc	6 290 9                 ## visualiser.c:290:9
	movq	72(%rdi), %rdi
	.loc	6 290 20                ## visualiser.c:290:20
	movq	%rax, (%rdi)
	.loc	6 291 2 is_stmt 1       ## visualiser.c:291:2
	movq	-16(%rbp), %rax
	.loc	6 291 9 is_stmt 0       ## visualiser.c:291:9
	movq	72(%rax), %rax
	.loc	6 291 21                ## visualiser.c:291:21
	movl	$0, 8(%rax)
	.loc	6 292 2 is_stmt 1       ## visualiser.c:292:2
	movq	-16(%rbp), %rax
	.loc	6 292 9 is_stmt 0       ## visualiser.c:292:9
	movq	72(%rax), %rax
	.loc	6 292 20                ## visualiser.c:292:20
	movq	$0, 16(%rax)
	.loc	6 293 2 is_stmt 1       ## visualiser.c:293:2
	movq	-16(%rbp), %rax
	.loc	6 293 9 is_stmt 0       ## visualiser.c:293:9
	movq	72(%rax), %rax
	.loc	6 293 20                ## visualiser.c:293:20
	movq	$0, 24(%rax)
	.loc	6 295 25 is_stmt 1      ## visualiser.c:295:25
	movq	-16(%rbp), %rax
	.loc	6 295 32 is_stmt 0      ## visualiser.c:295:32
	movq	8(%rax), %rdi
	.loc	6 295 2                 ## visualiser.c:295:2
	movl	%ecx, %esi
	movl	%ecx, %edx
	movl	$255, %r8d
	callq	_SDL_SetRenderDrawColor
	.loc	6 296 18 is_stmt 1      ## visualiser.c:296:18
	movq	-16(%rbp), %rdi
	.loc	6 296 25 is_stmt 0      ## visualiser.c:296:25
	movq	8(%rdi), %rdi
	.loc	6 296 2                 ## visualiser.c:296:2
	movl	%eax, -28(%rbp)         ## 4-byte Spill
	callq	_SDL_RenderClear
	.loc	6 297 20 is_stmt 1      ## visualiser.c:297:20
	movq	-16(%rbp), %rdi
	.loc	6 297 27 is_stmt 0      ## visualiser.c:297:27
	movq	8(%rdi), %rdi
	.loc	6 297 2                 ## visualiser.c:297:2
	movl	%eax, -32(%rbp)         ## 4-byte Spill
	callq	_SDL_RenderPresent
	.loc	6 301 4 is_stmt 1       ## visualiser.c:301:4
	movl	$0, -20(%rbp)
LBB11_1:                                ## =>This Inner Loop Header: Depth=1
	.loc	6 303 11                ## visualiser.c:303:11
	cmpl	$30, -20(%rbp)
	.loc	6 303 2 is_stmt 0       ## visualiser.c:303:2
	jge	LBB11_3
## %bb.2:                               ##   in Loop: Header=BB11_1 Depth=1
Ltmp93:
	.loc	6 305 50 is_stmt 1      ## visualiser.c:305:50
	movq	-16(%rbp), %rdi
	.loc	6 305 39 is_stmt 0      ## visualiser.c:305:39
	callq	_set_levels
	andb	$1, %al
	movzbl	%al, %esi
	.loc	6 305 3                 ## visualiser.c:305:3
	leaq	L_.str.3(%rip), %rdi
	movb	$0, %al
	callq	_printf
	.loc	6 306 4 is_stmt 1       ## visualiser.c:306:4
	movl	-20(%rbp), %esi
	addl	$1, %esi
	movl	%esi, -20(%rbp)
Ltmp94:
	.loc	6 303 2                 ## visualiser.c:303:2
	movl	%eax, -36(%rbp)         ## 4-byte Spill
	jmp	LBB11_1
LBB11_3:
	.loc	6 309 2                 ## visualiser.c:309:2
	jmp	LBB11_4
LBB11_4:                                ## =>This Inner Loop Header: Depth=1
	.loc	6 309 9 is_stmt 0       ## visualiser.c:309:9
	movq	-16(%rbp), %rax
	.loc	6 309 2                 ## visualiser.c:309:2
	testb	$1, 88(%rax)
	je	LBB11_6
## %bb.5:                               ##   in Loop: Header=BB11_4 Depth=1
Ltmp95:
	.loc	6 312 17 is_stmt 1      ## visualiser.c:312:17
	movq	-16(%rbp), %rdi
	.loc	6 312 3 is_stmt 0       ## visualiser.c:312:3
	callq	_handle_events
	.loc	6 315 16 is_stmt 1      ## visualiser.c:315:16
	movq	-16(%rbp), %rdi
	.loc	6 315 3 is_stmt 0       ## visualiser.c:315:3
	callq	_update_state
	.loc	6 318 16 is_stmt 1      ## visualiser.c:318:16
	movq	-16(%rbp), %rdi
	.loc	6 318 3 is_stmt 0       ## visualiser.c:318:3
	callq	_render_state
	.loc	6 320 3 is_stmt 1       ## visualiser.c:320:3
	movl	$1, %edi
	callq	_SDL_Delay
Ltmp96:
	.loc	6 309 2                 ## visualiser.c:309:2
	jmp	LBB11_4
LBB11_6:
	.loc	6 322 1                 ## visualiser.c:322:1
	movl	-4(%rbp), %eax
	addq	$48, %rsp
	popq	%rbp
	retq
Ltmp97:
Lfunc_end11:
	.cfi_endproc
                                        ## -- End function
	.section	__TEXT,__cstring,cstring_literals
L_.str:                                 ## @.str
	.asciz	" => "

L_.str.1:                               ## @.str.1
	.asciz	"Path count : "

L_.str.2:                               ## @.str.2
	.asciz	"Lem-in"

L_.str.3:                               ## @.str.3
	.asciz	"Set level returned : %d\n"

	.file	7 "/Users/gwasserf/Documents/WeThinkCode_/C/Lemon/visualiser" "../includes/lem_in.h"
	.file	8 "/Users/gwasserf/Documents/WeThinkCode_/C/Lemon/visualiser" "/Applications/Xcode.app/Contents/Developer/Platforms/MacOSX.platform/Developer/SDKs/MacOSX10.14.sdk/usr/include/_types/_uint32_t.h"
	.file	9 "/Users/gwasserf/Documents/WeThinkCode_/C/Lemon/visualiser" "/usr/local/include/SDL2/SDL_stdinc.h"
	.file	10 "/Users/gwasserf/Documents/WeThinkCode_/C/Lemon/visualiser" "/Applications/Xcode.app/Contents/Developer/Platforms/MacOSX.platform/Developer/SDKs/MacOSX10.14.sdk/usr/include/_types/_uint8_t.h"
	.file	11 "/Users/gwasserf/Documents/WeThinkCode_/C/Lemon/visualiser" "/Applications/Xcode.app/Contents/Developer/Platforms/MacOSX.platform/Developer/SDKs/MacOSX10.14.sdk/usr/include/sys/_types/_int32_t.h"
	.file	12 "/Users/gwasserf/Documents/WeThinkCode_/C/Lemon/visualiser" "/usr/local/include/SDL2/SDL_keyboard.h"
	.file	13 "/Users/gwasserf/Documents/WeThinkCode_/C/Lemon/visualiser" "/Applications/Xcode.app/Contents/Developer/Platforms/MacOSX.platform/Developer/SDKs/MacOSX10.14.sdk/usr/include/_types/_uint16_t.h"
	.file	14 "/Users/gwasserf/Documents/WeThinkCode_/C/Lemon/visualiser" "/usr/local/include/SDL2/SDL_joystick.h"
	.file	15 "/Users/gwasserf/Documents/WeThinkCode_/C/Lemon/visualiser" "/Applications/Xcode.app/Contents/Developer/Platforms/MacOSX.platform/Developer/SDKs/MacOSX10.14.sdk/usr/include/sys/_types/_int16_t.h"
	.file	16 "/Users/gwasserf/Documents/WeThinkCode_/C/Lemon/visualiser" "/Applications/Xcode.app/Contents/Developer/Platforms/MacOSX.platform/Developer/SDKs/MacOSX10.14.sdk/usr/include/sys/_types/_int64_t.h"
	.file	17 "/Users/gwasserf/Documents/WeThinkCode_/C/Lemon/visualiser" "/usr/local/include/SDL2/SDL_touch.h"
	.file	18 "/Users/gwasserf/Documents/WeThinkCode_/C/Lemon/visualiser" "/usr/local/include/SDL2/SDL_gesture.h"
	.file	19 "/Users/gwasserf/Documents/WeThinkCode_/C/Lemon/visualiser" "/usr/local/include/SDL2/SDL_rect.h"